; Function Attrs: mustprogress nofree norecurse nosync nounwind willreturn memory(none) uwtable
define noundef ptr @_Z10ftp2defopti(i32 noundef %0) local_unnamed_addr #1 {
  %or.cond = icmp ult i32 %0, 44
  br i1 %or.cond, label %2, label %6

2:                                                ; preds = %1
  %3 = zext nneg i32 %0 to i64
  %4 = getelementptr inbounds nuw [44 x %struct.t_deffile], ptr @_ZL7deffile, i64 0, i64 %3, i32 3
  %5 = load ptr, ptr %4, align 8, !tbaa !18
  br label %6

6:                                                ; preds = %1, %2
  %.0 = phi ptr [ %5, %2 ], [ null, %1 ]
  ret ptr %.0
}